target datalayout = "e-m:e-p270:32:32-p271:32:32-p272:64:64-i64:64-i128:128-f80:128-n8:16:32:64-S128"
target triple = "x86_64-pc-linux-gnu"

%struct.JsonFormat = type { i32, i32, i32, i32 }
%struct.nameData = type { [64 x i8] }

@.str.41 = private unnamed_addr constant [13 x i8] c"parse_expr.c\00", align 1
@.str.138 = private unnamed_addr constant [6 x i8] c"UTF16\00", align 1
@.str.139 = private unnamed_addr constant [6 x i8] c"UTF32\00", align 1
@.str.140 = private unnamed_addr constant [5 x i8] c"UTF8\00", align 1
@.str.141 = private unnamed_addr constant [26 x i8] c"invalid JSON encoding: %d\00", align 1
@__func__.getJsonEncodingConst = private unnamed_addr constant [21 x i8] c"getJsonEncodingConst\00", align 1

; Function Attrs: inlinehint nounwind uwtable
define internal i64 @PointerGetDatum(ptr noundef %0) #4 {
  %2 = alloca ptr, align 8
  store ptr %0, ptr %2, align 8
  %3 = load ptr, ptr %2, align 8
  %4 = ptrtoint ptr %3 to i64
  ret i64 %4
}

; Function Attrs: inlinehint nounwind uwtable
define internal i64 @CStringGetDatum(ptr noundef %0) #4 {
  %2 = alloca ptr, align 8
  store ptr %0, ptr %2, align 8
  %3 = load ptr, ptr %2, align 8
  %4 = call i64 @PointerGetDatum(ptr noundef %3)
  ret i64 %4
}

; Function Attrs: inlinehint nounwind uwtable
define internal i64 @NameGetDatum(ptr noundef %0) #4 {
  %2 = alloca ptr, align 8
  store ptr %0, ptr %2, align 8
  %3 = load ptr, ptr %2, align 8
  %4 = getelementptr inbounds nuw %struct.nameData, ptr %3, i32 0, i32 0
  %5 = getelementptr inbounds [64 x i8], ptr %4, i64 0, i64 0
  %6 = call i64 @CStringGetDatum(ptr noundef %5)
  ret i64 %6
}

; Function Attrs: nounwind uwtable
define internal ptr @getJsonEncodingConst(ptr noundef %0) #0 {
  %2 = alloca ptr, align 8
  %3 = alloca i32, align 4
  %4 = alloca ptr, align 8
  %5 = alloca ptr, align 8
  store ptr %0, ptr %2, align 8
  call void @llvm.lifetime.start.p0(i64 4, ptr %3) #8
  call void @llvm.lifetime.start.p0(i64 8, ptr %4) #8
  call void @llvm.lifetime.start.p0(i64 8, ptr %5) #8
  %6 = call ptr @palloc(i64 noundef 64)
  store ptr %6, ptr %5, align 8
  %7 = load ptr, ptr %2, align 8
  %8 = icmp ne ptr %7, null
  br i1 %8, label %9, label %19

9:                                                ; preds = %1
  %10 = load ptr, ptr %2, align 8
  %11 = getelementptr inbounds nuw %struct.JsonFormat, ptr %10, i32 0, i32 1
  %12 = load i32, ptr %11, align 4
  %13 = icmp eq i32 %12, 0
  br i1 %13, label %19, label %14

14:                                               ; preds = %9
  %15 = load ptr, ptr %2, align 8
  %16 = getelementptr inbounds nuw %struct.JsonFormat, ptr %15, i32 0, i32 2
  %17 = load i32, ptr %16, align 4
  %18 = icmp eq i32 %17, 0
  br i1 %18, label %19, label %20

19:                                               ; preds = %14, %9, %1
  store i32 1, ptr %3, align 4
  br label %24

20:                                               ; preds = %14
  %21 = load ptr, ptr %2, align 8
  %22 = getelementptr inbounds nuw %struct.JsonFormat, ptr %21, i32 0, i32 2
  %23 = load i32, ptr %22, align 4
  store i32 %23, ptr %3, align 4
  br label %24

24:                                               ; preds = %20, %19
  %25 = load i32, ptr %3, align 4
  switch i32 %25, label %29 [
    i32 2, label %26
    i32 3, label %27
    i32 1, label %28
  ]

26:                                               ; preds = %24
  store ptr @.str.138, ptr %4, align 8
  br label %41

27:                                               ; preds = %24
  store ptr @.str.139, ptr %4, align 8
  br label %41

28:                                               ; preds = %24
  store ptr @.str.140, ptr %4, align 8
  br label %41

29:                                               ; preds = %24
  br label %30

30:                                               ; preds = %29
  br i1 true, label %31, label %33

31:                                               ; preds = %30
  %32 = call zeroext i1 @errstart_cold(i32 noundef 21, ptr noundef null) #9
  br i1 %32, label %35, label %38

33:                                               ; preds = %30
  %34 = call zeroext i1 @errstart(i32 noundef 21, ptr noundef null)
  br i1 %34, label %35, label %38

35:                                               ; preds = %33, %31
  %36 = load i32, ptr %3, align 4
  %37 = call i32 (ptr, ...) @errmsg_internal(ptr noundef @.str.141, i32 noundef %36)
  call void @errfinish(ptr noundef @.str.41, i32 noundef 3252, ptr noundef @__func__.getJsonEncodingConst)
  br label %38

38:                                               ; preds = %35, %33, %31
  unreachable

39:                                               ; No predecessors!
  br label %40

40:                                               ; preds = %39
  br label %41

41:                                               ; preds = %40, %28, %27, %26
  %42 = load ptr, ptr %5, align 8
  %43 = load ptr, ptr %4, align 8
  call void @namestrcpy(ptr noundef %42, ptr noundef %43)
  %44 = load ptr, ptr %5, align 8
  %45 = call i64 @NameGetDatum(ptr noundef %44)
  %46 = call ptr @makeConst(i32 noundef 19, i32 noundef -1, i32 noundef 0, i32 noundef 64, i64 noundef %45, i1 noundef zeroext false, i1 noundef zeroext false)
  call void @llvm.lifetime.end.p0(i64 8, ptr %5) #8
  call void @llvm.lifetime.end.p0(i64 8, ptr %4) #8
  call void @llvm.lifetime.end.p0(i64 4, ptr %3) #8
  ret ptr %46
}