; Function Attrs: nounwind uwtable
define internal fastcc ptr @getJsonEncodingConst(ptr noundef readonly captures(address_is_null) %0) unnamed_addr #0 {
  %2 = tail call ptr @palloc(i64 noundef 64) #9
  %.not = icmp eq ptr %0, null
  br i1 %.not, label %.thread, label %3

3:                                                ; preds = %1
  %4 = getelementptr inbounds nuw i8, ptr %0, i64 4
  %5 = load i32, ptr %4, align 4
  %6 = icmp eq i32 %5, 0
  br i1 %6, label %.thread, label %7

7:                                                ; preds = %3
  %8 = getelementptr inbounds nuw i8, ptr %0, i64 8
  %9 = load i32, ptr %8, align 4
  %10 = icmp ult i32 %9, 4
  br i1 %10, label %switch.lookup, label %11

11:                                               ; preds = %7
  %12 = tail call zeroext i1 @errstart_cold(i32 noundef 21, ptr noundef null) #10
  tail call void @llvm.assume(i1 %12)
  %13 = tail call i32 (ptr, ...) @errmsg_internal(ptr noundef nonnull @.str.141, i32 noundef %9) #9
  tail call void @errfinish(ptr noundef nonnull @.str.41, i32 noundef 3252, ptr noundef nonnull @__func__.getJsonEncodingConst) #9
  unreachable

switch.lookup:                                    ; preds = %7
  %14 = zext nneg i32 %9 to i64
  %switch.gep = getelementptr inbounds nuw [4 x ptr], ptr @switch.table.getJsonEncodingConst, i64 0, i64 %14
  %switch.load = load ptr, ptr %switch.gep, align 8
  br label %.thread

.thread:                                          ; preds = %3, %1, %switch.lookup
  %.08 = phi ptr [ %switch.load, %switch.lookup ], [ @.str.140, %1 ], [ @.str.140, %3 ]
  tail call void @namestrcpy(ptr noundef %2, ptr noundef nonnull %.08) #9
  %15 = ptrtoint ptr %2 to i64
  %16 = tail call ptr @makeConst(i32 noundef 19, i32 noundef -1, i32 noundef 0, i32 noundef 64, i64 noundef %15, i1 noundef zeroext false, i1 noundef zeroext false) #9
  ret ptr %16
}